target datalayout = "e-m:e-p270:32:32-p271:32:32-p272:64:64-i64:64-i128:128-f80:128-n8:16:32:64-S128"
target triple = "x86_64-pc-linux-gnu"

%struct.AVCodecContext = type { ptr, i32, i32, ptr, i32, i32, ptr, ptr, ptr, i64, i32, i32, ptr, i32, %struct.AVRational, %struct.AVRational, %struct.AVRational, i32, i32, i32, i32, i32, %struct.AVRational, i32, i32, i32, i32, i32, i32, i32, i32, i32, i32, i32, ptr, ptr, i32, float, float, float, float, float, float, float, float, float, i32, i32, i32, i32, i32, i32, i32, i32, i32, i32, i32, i32, ptr, ptr, ptr, i32, i32, i32, i32, i32, i32, i32, i32, i32, i32, %struct.AVChannelLayout, i32, i32, i32, i32, i32, i32, i32, i32, ptr, i32, i32, i32, float, float, i32, i32, i32, i32, i32, ptr, i64, i64, float, float, i32, i32, ptr, ptr, i32, i32, i32, i32, i32, ptr, ptr, ptr, ptr, i32, i32, [8 x i64], i32, i32, i32, i32, i32, i32, i32, ptr, ptr, i32, i32, i32, i32, i32, i32, i32, i32, i32, i32, ptr, ptr, i32, i32, ptr, ptr, ptr, ptr, i32, i32, i64, i32, i32, i64, ptr, i64, ptr, i32, ptr, i32 }
%struct.AVRational = type { i32, i32 }
%struct.AVChannelLayout = type { i32, i32, %union.anon.0, ptr }
%union.anon.0 = type { i64 }
%struct.WMACodecContext = type { ptr, %struct.GetBitContext, %struct.PutBitContext, i32, i32, i32, i32, i32, i32, %struct.VLC, [5 x i32], [5 x [25 x i16]], [5 x i32], i32, [5 x i32], [5 x i32], [5 x [16 x i32]], %struct.VLC, [2 x [16 x i32]], [2 x [16 x i32]], [2 x %struct.VLC], [2 x ptr], [2 x ptr], [2 x ptr], [2 x ptr], i32, i32, i32, i32, i32, i32, i32, i32, i32, i32, i8, [2 x i8], [2 x i32], [12 x i8], [2 x [2048 x float]], [2 x float], [2 x [2048 x float]], [8 x i8], [2 x [2048 x float]], [4096 x float], [5 x ptr], [5 x ptr], [5 x ptr], [8 x i8], [2 x [4096 x float]], [32832 x i8], i32, i32, [2 x i32], [8192 x float], i32, float, [2048 x float], [256 x float], [128 x float], [128 x float], ptr, i32, [12 x i8] }
%struct.GetBitContext = type { ptr, ptr, i32, i32, i32 }
%struct.PutBitContext = type { i32, i32, ptr, ptr, ptr }
%struct.VLC = type { i32, ptr, i32, i32 }
%struct.AVCodec = type { ptr, ptr, i32, i32, i32, i8, ptr, ptr, ptr, ptr, ptr, ptr, ptr, ptr }
%struct.AVCodecInternal = type { i32, i32, i32, ptr, ptr, ptr, ptr, ptr, ptr, ptr, i32, ptr, ptr, ptr, i32, i32, ptr, i32, ptr, ptr, i32, i32 }

@.str.5 = private unnamed_addr constant [24 x i8] c"block_align is not set\0A\00", align 1
@.str.6 = private unnamed_addr constant [100 x i8] c"Disabling use_variable_block_len, if this fails contact the ffmpeg developers and send us the file\0A\00", align 1
@ff_wma_hgain_hufftab = external constant [37 x [2 x i8]], align 16
@ff_aac_scalefactor_bits = external constant [121 x i8], align 16
@ff_aac_scalefactor_code = external constant [121 x i32], align 16

; Function Attrs: cold nounwind optsize uwtable
define internal i32 @wma_decode_init(ptr noundef %0) #0 {
  %2 = alloca i32, align 4
  %3 = alloca ptr, align 8
  %4 = alloca ptr, align 8
  %5 = alloca i32, align 4
  %6 = alloca i32, align 4
  %7 = alloca i32, align 4
  %8 = alloca ptr, align 8
  %9 = alloca i32, align 4
  %10 = alloca float, align 4
  store ptr %0, ptr %3, align 8, !tbaa !4
  call void @llvm.lifetime.start.p0(i64 8, ptr %4) #10
  %11 = load ptr, ptr %3, align 8, !tbaa !4
  %12 = getelementptr inbounds nuw %struct.AVCodecContext, ptr %11, i32 0, i32 6
  %13 = load ptr, ptr %12, align 8, !tbaa !9
  store ptr %13, ptr %4, align 8, !tbaa !29
  call void @llvm.lifetime.start.p0(i64 4, ptr %5) #10
  call void @llvm.lifetime.start.p0(i64 4, ptr %6) #10
  call void @llvm.lifetime.start.p0(i64 4, ptr %7) #10
  call void @llvm.lifetime.start.p0(i64 8, ptr %8) #10
  %14 = load ptr, ptr %3, align 8, !tbaa !4
  %15 = getelementptr inbounds nuw %struct.AVCodecContext, ptr %14, i32 0, i32 73
  %16 = load i32, ptr %15, align 4, !tbaa !31
  %17 = icmp ne i32 %16, 0
  br i1 %17, label %20, label %18

18:                                               ; preds = %1
  %19 = load ptr, ptr %3, align 8, !tbaa !4
  call void (ptr, i32, ptr, ...) @av_log(ptr noundef %19, i32 noundef 16, ptr noundef @.str.5)
  store i32 -22, ptr %2, align 4
  store i32 1, ptr %9, align 4
  br label %202

20:                                               ; preds = %1
  %21 = load ptr, ptr %3, align 8, !tbaa !4
  %22 = load ptr, ptr %4, align 8, !tbaa !29
  %23 = getelementptr inbounds nuw %struct.WMACodecContext, ptr %22, i32 0, i32 0
  store ptr %21, ptr %23, align 16, !tbaa !32
  store i32 0, ptr %6, align 4, !tbaa !39
  %24 = load ptr, ptr %3, align 8, !tbaa !4
  %25 = getelementptr inbounds nuw %struct.AVCodecContext, ptr %24, i32 0, i32 12
  %26 = load ptr, ptr %25, align 8, !tbaa !40
  store ptr %26, ptr %8, align 8, !tbaa !41
  %27 = load ptr, ptr %3, align 8, !tbaa !4
  %28 = getelementptr inbounds nuw %struct.AVCodecContext, ptr %27, i32 0, i32 3
  %29 = load ptr, ptr %28, align 8, !tbaa !42
  %30 = getelementptr inbounds nuw %struct.AVCodec, ptr %29, i32 0, i32 3
  %31 = load i32, ptr %30, align 4, !tbaa !43
  %32 = icmp eq i32 %31, 86023
  br i1 %32, label %33, label %43

33:                                               ; preds = %20
  %34 = load ptr, ptr %3, align 8, !tbaa !4
  %35 = getelementptr inbounds nuw %struct.AVCodecContext, ptr %34, i32 0, i32 13
  %36 = load i32, ptr %35, align 8, !tbaa !48
  %37 = icmp sge i32 %36, 4
  br i1 %37, label %38, label %43

38:                                               ; preds = %33
  %39 = load ptr, ptr %8, align 8, !tbaa !41
  %40 = getelementptr inbounds i8, ptr %39, i64 2
  %41 = load i16, ptr %40, align 1, !tbaa !49
  %42 = zext i16 %41 to i32
  store i32 %42, ptr %6, align 4, !tbaa !39
  br label %61

43:                                               ; preds = %33, %20
  %44 = load ptr, ptr %3, align 8, !tbaa !4
  %45 = getelementptr inbounds nuw %struct.AVCodecContext, ptr %44, i32 0, i32 3
  %46 = load ptr, ptr %45, align 8, !tbaa !42
  %47 = getelementptr inbounds nuw %struct.AVCodec, ptr %46, i32 0, i32 3
  %48 = load i32, ptr %47, align 4, !tbaa !43
  %49 = icmp eq i32 %48, 86024
  br i1 %49, label %50, label %60

50:                                               ; preds = %43
  %51 = load ptr, ptr %3, align 8, !tbaa !4
  %52 = getelementptr inbounds nuw %struct.AVCodecContext, ptr %51, i32 0, i32 13
  %53 = load i32, ptr %52, align 8, !tbaa !48
  %54 = icmp sge i32 %53, 6
  br i1 %54, label %55, label %60

55:                                               ; preds = %50
  %56 = load ptr, ptr %8, align 8, !tbaa !41
  %57 = getelementptr inbounds i8, ptr %56, i64 4
  %58 = load i16, ptr %57, align 1, !tbaa !49
  %59 = zext i16 %58 to i32
  store i32 %59, ptr %6, align 4, !tbaa !39
  br label %60

60:                                               ; preds = %55, %50, %43
  br label %61

61:                                               ; preds = %60, %38
  %62 = load i32, ptr %6, align 4, !tbaa !39
  %63 = and i32 %62, 1
  %64 = load ptr, ptr %4, align 8, !tbaa !29
  %65 = getelementptr inbounds nuw %struct.WMACodecContext, ptr %64, i32 0, i32 6
  store i32 %63, ptr %65, align 4, !tbaa !50
  %66 = load i32, ptr %6, align 4, !tbaa !39
  %67 = and i32 %66, 2
  %68 = load ptr, ptr %4, align 8, !tbaa !29
  %69 = getelementptr inbounds nuw %struct.WMACodecContext, ptr %68, i32 0, i32 4
  store i32 %67, ptr %69, align 4, !tbaa !51
  %70 = load i32, ptr %6, align 4, !tbaa !39
  %71 = and i32 %70, 4
  %72 = load ptr, ptr %4, align 8, !tbaa !29
  %73 = getelementptr inbounds nuw %struct.WMACodecContext, ptr %72, i32 0, i32 5
  store i32 %71, ptr %73, align 16, !tbaa !52
  %74 = load ptr, ptr %3, align 8, !tbaa !4
  %75 = getelementptr inbounds nuw %struct.AVCodecContext, ptr %74, i32 0, i32 3
  %76 = load ptr, ptr %75, align 8, !tbaa !42
  %77 = getelementptr inbounds nuw %struct.AVCodec, ptr %76, i32 0, i32 3
  %78 = load i32, ptr %77, align 4, !tbaa !43
  %79 = icmp eq i32 %78, 86024
  br i1 %79, label %80, label %101

80:                                               ; preds = %61
  %81 = load ptr, ptr %3, align 8, !tbaa !4
  %82 = getelementptr inbounds nuw %struct.AVCodecContext, ptr %81, i32 0, i32 13
  %83 = load i32, ptr %82, align 8, !tbaa !48
  %84 = icmp sge i32 %83, 8
  br i1 %84, label %85, label %101

85:                                               ; preds = %80
  %86 = load ptr, ptr %8, align 8, !tbaa !41
  %87 = getelementptr inbounds i8, ptr %86, i64 4
  %88 = load i16, ptr %87, align 1, !tbaa !49
  %89 = zext i16 %88 to i32
  %90 = icmp eq i32 %89, 13
  br i1 %90, label %91, label %100

91:                                               ; preds = %85
  %92 = load ptr, ptr %4, align 8, !tbaa !29
  %93 = getelementptr inbounds nuw %struct.WMACodecContext, ptr %92, i32 0, i32 5
  %94 = load i32, ptr %93, align 16, !tbaa !52
  %95 = icmp ne i32 %94, 0
  br i1 %95, label %96, label %100

96:                                               ; preds = %91
  %97 = load ptr, ptr %3, align 8, !tbaa !4
  call void (ptr, i32, ptr, ...) @av_log(ptr noundef %97, i32 noundef 24, ptr noundef @.str.6)
  %98 = load ptr, ptr %4, align 8, !tbaa !29
  %99 = getelementptr inbounds nuw %struct.WMACodecContext, ptr %98, i32 0, i32 5
  store i32 0, ptr %99, align 16, !tbaa !52
  br label %100

100:                                              ; preds = %96, %91, %85
  br label %101

101:                                              ; preds = %100, %80, %61
  store i32 0, ptr %5, align 4, !tbaa !39
  br label %102

102:                                              ; preds = %111, %101
  %103 = load i32, ptr %5, align 4, !tbaa !39
  %104 = icmp slt i32 %103, 2
  br i1 %104, label %105, label %114

105:                                              ; preds = %102
  %106 = load ptr, ptr %4, align 8, !tbaa !29
  %107 = getelementptr inbounds nuw %struct.WMACodecContext, ptr %106, i32 0, i32 40
  %108 = load i32, ptr %5, align 4, !tbaa !39
  %109 = sext i32 %108 to i64
  %110 = getelementptr inbounds [2 x float], ptr %107, i64 0, i64 %109
  store float 1.000000e+00, ptr %110, align 4, !tbaa !53
  br label %111

111:                                              ; preds = %105
  %112 = load i32, ptr %5, align 4, !tbaa !39
  %113 = add nsw i32 %112, 1
  store i32 %113, ptr %5, align 4, !tbaa !39
  br label %102, !llvm.loop !54

114:                                              ; preds = %102
  %115 = load ptr, ptr %3, align 8, !tbaa !4
  %116 = load i32, ptr %6, align 4, !tbaa !39
  %117 = call i32 @ff_wma_init(ptr noundef %115, i32 noundef %116)
  store i32 %117, ptr %7, align 4, !tbaa !39
  %118 = icmp slt i32 %117, 0
  br i1 %118, label %119, label %121

119:                                              ; preds = %114
  %120 = load i32, ptr %7, align 4, !tbaa !39
  store i32 %120, ptr %2, align 4
  store i32 1, ptr %9, align 4
  br label %202

121:                                              ; preds = %114
  store i32 0, ptr %5, align 4, !tbaa !39
  br label %122

122:                                              ; preds = %154, %121
  %123 = load i32, ptr %5, align 4, !tbaa !39
  %124 = load ptr, ptr %4, align 8, !tbaa !29
  %125 = getelementptr inbounds nuw %struct.WMACodecContext, ptr %124, i32 0, i32 27
  %126 = load i32, ptr %125, align 8, !tbaa !56
  %127 = icmp slt i32 %123, %126
  br i1 %127, label %128, label %157

128:                                              ; preds = %122
  call void @llvm.lifetime.start.p0(i64 4, ptr %10) #10
  store float 0x3F00000000000000, ptr %10, align 4, !tbaa !53
  %129 = load ptr, ptr %4, align 8, !tbaa !29
  %130 = getelementptr inbounds nuw %struct.WMACodecContext, ptr %129, i32 0, i32 45
  %131 = load i32, ptr %5, align 4, !tbaa !39
  %132 = sext i32 %131 to i64
  %133 = getelementptr inbounds [5 x ptr], ptr %130, i64 0, i64 %132
  %134 = load ptr, ptr %4, align 8, !tbaa !29
  %135 = getelementptr inbounds nuw %struct.WMACodecContext, ptr %134, i32 0, i32 46
  %136 = load i32, ptr %5, align 4, !tbaa !39
  %137 = sext i32 %136 to i64
  %138 = getelementptr inbounds [5 x ptr], ptr %135, i64 0, i64 %137
  %139 = load ptr, ptr %4, align 8, !tbaa !29
  %140 = getelementptr inbounds nuw %struct.WMACodecContext, ptr %139, i32 0, i32 26
  %141 = load i32, ptr %140, align 4, !tbaa !57
  %142 = load i32, ptr %5, align 4, !tbaa !39
  %143 = sub nsw i32 %141, %142
  %144 = shl i32 1, %143
  %145 = call i32 @av_tx_init(ptr noundef %133, ptr noundef %138, i32 noundef 1, i32 noundef 1, i32 noundef %144, ptr noundef %10, i64 noundef 4)
  store i32 %145, ptr %7, align 4, !tbaa !39
  %146 = load i32, ptr %7, align 4, !tbaa !39
  %147 = icmp slt i32 %146, 0
  br i1 %147, label %148, label %150

148:                                              ; preds = %128
  %149 = load i32, ptr %7, align 4, !tbaa !39
  store i32 %149, ptr %2, align 4
  store i32 1, ptr %9, align 4
  br label %151

150:                                              ; preds = %128
  store i32 0, ptr %9, align 4
  br label %151

151:                                              ; preds = %150, %148
  call void @llvm.lifetime.end.p0(i64 4, ptr %10) #10
  %152 = load i32, ptr %9, align 4
  switch i32 %152, label %202 [
    i32 0, label %153
  ]

153:                                              ; preds = %151
  br label %154

154:                                              ; preds = %153
  %155 = load i32, ptr %5, align 4, !tbaa !39
  %156 = add nsw i32 %155, 1
  store i32 %156, ptr %5, align 4, !tbaa !39
  br label %122, !llvm.loop !58

157:                                              ; preds = %122
  %158 = load ptr, ptr %4, align 8, !tbaa !29
  %159 = getelementptr inbounds nuw %struct.WMACodecContext, ptr %158, i32 0, i32 7
  %160 = load i32, ptr %159, align 8, !tbaa !59
  %161 = icmp ne i32 %160, 0
  br i1 %161, label %162, label %172

162:                                              ; preds = %157
  %163 = load ptr, ptr %4, align 8, !tbaa !29
  %164 = getelementptr inbounds nuw %struct.WMACodecContext, ptr %163, i32 0, i32 17
  %165 = load ptr, ptr %3, align 8, !tbaa !4
  %166 = call i32 @ff_vlc_init_from_lengths(ptr noundef %164, i32 noundef 9, i32 noundef 37, ptr noundef getelementptr inbounds ([2 x i8], ptr @ff_wma_hgain_hufftab, i64 0, i64 1), i32 noundef 2, ptr noundef @ff_wma_hgain_hufftab, i32 noundef 2, i32 noundef 1, i32 noundef -18, i32 noundef 0, ptr noundef %165)
  store i32 %166, ptr %7, align 4, !tbaa !39
  %167 = load i32, ptr %7, align 4, !tbaa !39
  %168 = icmp slt i32 %167, 0
  br i1 %168, label %169, label %171

169:                                              ; preds = %162
  %170 = load i32, ptr %7, align 4, !tbaa !39
  store i32 %170, ptr %2, align 4
  store i32 1, ptr %9, align 4
  br label %202

171:                                              ; preds = %162
  br label %172

172:                                              ; preds = %171, %157
  %173 = load ptr, ptr %4, align 8, !tbaa !29
  %174 = getelementptr inbounds nuw %struct.WMACodecContext, ptr %173, i32 0, i32 6
  %175 = load i32, ptr %174, align 4, !tbaa !50
  %176 = icmp ne i32 %175, 0
  br i1 %176, label %177, label %186

177:                                              ; preds = %172
  %178 = load ptr, ptr %4, align 8, !tbaa !29
  %179 = getelementptr inbounds nuw %struct.WMACodecContext, ptr %178, i32 0, i32 9
  %180 = call i32 @ff_vlc_init_sparse(ptr noundef %179, i32 noundef 8, i32 noundef 121, ptr noundef @ff_aac_scalefactor_bits, i32 noundef 1, i32 noundef 1, ptr noundef @ff_aac_scalefactor_code, i32 noundef 4, i32 noundef 4, ptr noundef null, i32 noundef 0, i32 noundef 0, i32 noundef 0)
  store i32 %180, ptr %7, align 4, !tbaa !39
  %181 = load i32, ptr %7, align 4, !tbaa !39
  %182 = icmp slt i32 %181, 0
  br i1 %182, label %183, label %185

183:                                              ; preds = %177
  %184 = load i32, ptr %7, align 4, !tbaa !39
  store i32 %184, ptr %2, align 4
  store i32 1, ptr %9, align 4
  br label %202

185:                                              ; preds = %177
  br label %191

186:                                              ; preds = %172
  %187 = load ptr, ptr %4, align 8, !tbaa !29
  %188 = load ptr, ptr %4, align 8, !tbaa !29
  %189 = getelementptr inbounds nuw %struct.WMACodecContext, ptr %188, i32 0, i32 25
  %190 = load i32, ptr %189, align 16, !tbaa !60
  call void @wma_lsp_to_curve_init(ptr noundef %187, i32 noundef %190)
  br label %191

191:                                              ; preds = %186, %185
  %192 = load ptr, ptr %3, align 8, !tbaa !4
  %193 = getelementptr inbounds nuw %struct.AVCodecContext, ptr %192, i32 0, i32 70
  store i32 8, ptr %193, align 4, !tbaa !61
  %194 = load ptr, ptr %4, align 8, !tbaa !29
  %195 = getelementptr inbounds nuw %struct.WMACodecContext, ptr %194, i32 0, i32 25
  %196 = load i32, ptr %195, align 16, !tbaa !60
  %197 = mul nsw i32 %196, 2
  %198 = load ptr, ptr %3, align 8, !tbaa !4
  %199 = getelementptr inbounds nuw %struct.AVCodecContext, ptr %198, i32 0, i32 7
  %200 = load ptr, ptr %199, align 8, !tbaa !62
  %201 = getelementptr inbounds nuw %struct.AVCodecInternal, ptr %200, i32 0, i32 15
  store i32 %197, ptr %201, align 4, !tbaa !63
  store i32 0, ptr %2, align 4
  store i32 1, ptr %9, align 4
  br label %202

202:                                              ; preds = %191, %183, %169, %151, %119, %18
  call void @llvm.lifetime.end.p0(i64 8, ptr %8) #10
  call void @llvm.lifetime.end.p0(i64 4, ptr %7) #10
  call void @llvm.lifetime.end.p0(i64 4, ptr %6) #10
  call void @llvm.lifetime.end.p0(i64 4, ptr %5) #10
  call void @llvm.lifetime.end.p0(i64 8, ptr %4) #10
  %203 = load i32, ptr %2, align 4
  ret i32 %203
}