; Function Attrs: cold nounwind optsize uwtable
define internal range(i32 -2147483648, 1) i32 @wma_decode_init(ptr noundef %0) #0 {
  %2 = alloca float, align 4
  %3 = getelementptr inbounds nuw i8, ptr %0, i64 32
  %4 = load ptr, ptr %3, align 8, !tbaa !4
  %5 = getelementptr inbounds nuw i8, ptr %0, i64 380
  %6 = load i32, ptr %5, align 4, !tbaa !27
  %.not = icmp eq i32 %6, 0
  br i1 %.not, label %7, label %8

7:                                                ; preds = %1
  tail call void (ptr, i32, ptr, ...) @av_log(ptr noundef nonnull %0, i32 noundef 16, ptr noundef nonnull @.str.5) #10
  br label %.loopexit

8:                                                ; preds = %1
  store ptr %0, ptr %4, align 16, !tbaa !28
  %9 = getelementptr inbounds nuw i8, ptr %0, i64 72
  %10 = load ptr, ptr %9, align 8, !tbaa !36
  %11 = getelementptr inbounds nuw i8, ptr %0, i64 16
  %12 = load ptr, ptr %11, align 8, !tbaa !37
  %13 = getelementptr inbounds nuw i8, ptr %12, i64 20
  %14 = load i32, ptr %13, align 4, !tbaa !38
  switch i32 %14, label %.thread [
    i32 86023, label %15
    i32 86024, label %19
  ]

15:                                               ; preds = %8
  %16 = getelementptr inbounds nuw i8, ptr %0, i64 80
  %17 = load i32, ptr %16, align 8, !tbaa !43
  %18 = icmp sgt i32 %17, 3
  br i1 %18, label %.thread.sink.split, label %.thread

19:                                               ; preds = %8
  %20 = getelementptr inbounds nuw i8, ptr %0, i64 80
  %21 = load i32, ptr %20, align 8, !tbaa !43
  %22 = icmp sgt i32 %21, 5
  br i1 %22, label %.thread.sink.split, label %.thread

.thread.sink.split:                               ; preds = %19, %15
  %.sink76 = phi i64 [ 2, %15 ], [ 4, %19 ]
  %23 = getelementptr inbounds nuw i8, ptr %10, i64 %.sink76
  %24 = load i16, ptr %23, align 1, !tbaa !44
  %25 = zext i16 %24 to i32
  br label %.thread

.thread:                                          ; preds = %.thread.sink.split, %8, %15, %19
  %.058.shrunk = phi i32 [ 0, %19 ], [ 0, %15 ], [ 0, %8 ], [ %25, %.thread.sink.split ]
  %26 = and i32 %.058.shrunk, 1
  %27 = getelementptr inbounds nuw i8, ptr %4, i64 84
  store i32 %26, ptr %27, align 4, !tbaa !45
  %28 = and i32 %.058.shrunk, 2
  %29 = getelementptr inbounds nuw i8, ptr %4, i64 76
  store i32 %28, ptr %29, align 4, !tbaa !46
  %30 = and i32 %.058.shrunk, 4
  %31 = getelementptr inbounds nuw i8, ptr %4, i64 80
  store i32 %30, ptr %31, align 16, !tbaa !47
  %32 = icmp eq i32 %14, 86024
  br i1 %32, label %33, label %.critedge

33:                                               ; preds = %.thread
  %34 = getelementptr inbounds nuw i8, ptr %0, i64 80
  %35 = load i32, ptr %34, align 8, !tbaa !43
  %36 = icmp sgt i32 %35, 7
  br i1 %36, label %37, label %.critedge

37:                                               ; preds = %33
  %38 = getelementptr inbounds nuw i8, ptr %10, i64 4
  %39 = load i16, ptr %38, align 1, !tbaa !44
  %40 = icmp ne i16 %39, 13
  %.not65 = icmp eq i32 %30, 0
  %or.cond = select i1 %40, i1 true, i1 %.not65
  br i1 %or.cond, label %.critedge, label %41

41:                                               ; preds = %37
  tail call void (ptr, i32, ptr, ...) @av_log(ptr noundef nonnull %0, i32 noundef 24, ptr noundef nonnull @.str.6) #10
  store i32 0, ptr %31, align 16, !tbaa !47
  br label %.critedge

.critedge:                                        ; preds = %37, %41, %33, %.thread
  %42 = getelementptr inbounds nuw i8, ptr %4, i64 17616
  store float 1.000000e+00, ptr %42, align 4, !tbaa !48
  %43 = getelementptr inbounds nuw i8, ptr %4, i64 17620
  store float 1.000000e+00, ptr %43, align 4, !tbaa !48
  %44 = tail call i32 @ff_wma_init(ptr noundef nonnull %0, i32 noundef %.058.shrunk) #10
  %45 = icmp slt i32 %44, 0
  br i1 %45, label %.loopexit, label %.preheader

.preheader:                                       ; preds = %.critedge
  %46 = getelementptr inbounds nuw i8, ptr %4, i64 1176
  %47 = load i32, ptr %46, align 8, !tbaa !49
  %48 = icmp sgt i32 %47, 0
  br i1 %48, label %.lr.ph, label %._crit_edge

.lr.ph:                                           ; preds = %.preheader
  %49 = getelementptr inbounds nuw i8, ptr %4, i64 66784
  %50 = getelementptr inbounds nuw i8, ptr %4, i64 66824
  %51 = getelementptr inbounds nuw i8, ptr %4, i64 1172
  br label %56

52:                                               ; preds = %56
  %indvars.iv.next73 = add nuw nsw i64 %indvars.iv72, 1
  %53 = load i32, ptr %46, align 8, !tbaa !49
  %54 = sext i32 %53 to i64
  %55 = icmp slt i64 %indvars.iv.next73, %54
  br i1 %55, label %56, label %._crit_edge, !llvm.loop !50

56:                                               ; preds = %.lr.ph, %52
  %indvars.iv72 = phi i64 [ 0, %.lr.ph ], [ %indvars.iv.next73, %52 ]
  call void @llvm.lifetime.start.p0(i64 4, ptr nonnull %2) #10
  store float 0x3F00000000000000, ptr %2, align 4, !tbaa !48
  %57 = getelementptr inbounds nuw [5 x ptr], ptr %49, i64 0, i64 %indvars.iv72
  %58 = getelementptr inbounds nuw [5 x ptr], ptr %50, i64 0, i64 %indvars.iv72
  %59 = load i32, ptr %51, align 4, !tbaa !52
  %60 = trunc nuw nsw i64 %indvars.iv72 to i32
  %61 = sub nsw i32 %59, %60
  %62 = shl nuw i32 1, %61
  %63 = call i32 @av_tx_init(ptr noundef nonnull %57, ptr noundef nonnull %58, i32 noundef 1, i32 noundef 1, i32 noundef %62, ptr noundef nonnull %2, i64 noundef 4) #10
  %64 = icmp sgt i32 %63, -1
  call void @llvm.lifetime.end.p0(i64 4, ptr nonnull %2) #10
  br i1 %64, label %52, label %.loopexit

._crit_edge:                                      ; preds = %52, %.preheader
  %65 = getelementptr inbounds nuw i8, ptr %4, i64 88
  %66 = load i32, ptr %65, align 8, !tbaa !53
  %.not66 = icmp eq i32 %66, 0
  br i1 %.not66, label %71, label %67

67:                                               ; preds = %._crit_edge
  %68 = getelementptr inbounds nuw i8, ptr %4, i64 776
  %69 = call i32 @ff_vlc_init_from_lengths(ptr noundef nonnull %68, i32 noundef 9, i32 noundef 37, ptr noundef nonnull getelementptr inbounds nuw (i8, ptr @ff_wma_hgain_hufftab, i64 1), i32 noundef 2, ptr noundef nonnull @ff_wma_hgain_hufftab, i32 noundef 2, i32 noundef 1, i32 noundef -18, i32 noundef 0, ptr noundef nonnull %0) #10
  %70 = icmp slt i32 %69, 0
  br i1 %70, label %.loopexit, label %71

71:                                               ; preds = %67, %._crit_edge
  %72 = load i32, ptr %27, align 4, !tbaa !45
  %.not67 = icmp eq i32 %72, 0
  br i1 %.not67, label %77, label %73

73:                                               ; preds = %71
  %74 = getelementptr inbounds nuw i8, ptr %4, i64 96
  %75 = call i32 @ff_vlc_init_sparse(ptr noundef nonnull %74, i32 noundef 8, i32 noundef 121, ptr noundef nonnull @ff_aac_scalefactor_bits, i32 noundef 1, i32 noundef 1, ptr noundef nonnull @ff_aac_scalefactor_code, i32 noundef 4, i32 noundef 4, ptr noundef null, i32 noundef 0, i32 noundef 0, i32 noundef 0) #10
  %76 = icmp slt i32 %75, 0
  br i1 %76, label %.loopexit, label %80

77:                                               ; preds = %71
  %78 = getelementptr inbounds nuw i8, ptr %4, i64 1168
  %79 = load i32, ptr %78, align 16, !tbaa !54
  call fastcc void @wma_lsp_to_curve_init(ptr noundef nonnull %4, i32 noundef %79)
  br label %80

80:                                               ; preds = %73, %77
  %81 = getelementptr inbounds nuw i8, ptr %0, i64 348
  store i32 8, ptr %81, align 4, !tbaa !55
  %82 = getelementptr inbounds nuw i8, ptr %4, i64 1168
  %83 = load i32, ptr %82, align 16, !tbaa !54
  %84 = shl nsw i32 %83, 1
  %85 = getelementptr inbounds nuw i8, ptr %0, i64 40
  %86 = load ptr, ptr %85, align 8, !tbaa !56
  %87 = getelementptr inbounds nuw i8, ptr %86, i64 108
  store i32 %84, ptr %87, align 4, !tbaa !57
  br label %.loopexit

.loopexit:                                        ; preds = %56, %73, %67, %.critedge, %80, %7
  %.057 = phi i32 [ 0, %80 ], [ -22, %7 ], [ %44, %.critedge ], [ %69, %67 ], [ %75, %73 ], [ %63, %56 ]
  ret i32 %.057
}